target datalayout = "e-m:e-p270:32:32-p271:32:32-p272:64:64-i64:64-i128:128-f80:128-n8:16:32:64-S128"
target triple = "x86_64-pc-linux-gnu"

; Function Attrs: nounwind uwtable
define dso_local zeroext i1 @yyjson_locate_pos(ptr noundef %0, i64 noundef %1, i64 noundef %2, ptr noundef %3, ptr noundef %4, ptr noundef %5) #0 {
  %7 = alloca i1, align 1
  %8 = alloca ptr, align 8
  %9 = alloca i64, align 8
  %10 = alloca i64, align 8
  %11 = alloca ptr, align 8
  %12 = alloca ptr, align 8
  %13 = alloca ptr, align 8
  %14 = alloca i64, align 8
  %15 = alloca i64, align 8
  %16 = alloca i64, align 8
  %17 = alloca ptr, align 8
  %18 = alloca ptr, align 8
  %19 = alloca i32, align 4
  %20 = alloca i8, align 1
  store ptr %0, ptr %8, align 8, !tbaa !92
  store i64 %1, ptr %9, align 8, !tbaa !10
  store i64 %2, ptr %10, align 8, !tbaa !10
  store ptr %3, ptr %11, align 8, !tbaa !107
  store ptr %4, ptr %12, align 8, !tbaa !107
  store ptr %5, ptr %13, align 8, !tbaa !107
  call void @llvm.lifetime.start.p0(i64 8, ptr %14) #13
  store i64 0, ptr %14, align 8, !tbaa !10
  call void @llvm.lifetime.start.p0(i64 8, ptr %15) #13
  store i64 0, ptr %15, align 8, !tbaa !10
  call void @llvm.lifetime.start.p0(i64 8, ptr %16) #13
  store i64 0, ptr %16, align 8, !tbaa !10
  call void @llvm.lifetime.start.p0(i64 8, ptr %17) #13
  %21 = load ptr, ptr %8, align 8, !tbaa !92
  store ptr %21, ptr %17, align 8, !tbaa !92
  call void @llvm.lifetime.start.p0(i64 8, ptr %18) #13
  %22 = load ptr, ptr %17, align 8, !tbaa !92
  %23 = load i64, ptr %10, align 8, !tbaa !10
  %24 = getelementptr inbounds nuw i8, ptr %22, i64 %23
  store ptr %24, ptr %18, align 8, !tbaa !92
  %25 = load ptr, ptr %8, align 8, !tbaa !92
  %26 = icmp ne ptr %25, null
  br i1 %26, label %27, label %31

27:                                               ; preds = %6
  %28 = load i64, ptr %10, align 8, !tbaa !10
  %29 = load i64, ptr %9, align 8, !tbaa !10
  %30 = icmp ugt i64 %28, %29
  br i1 %30, label %31, label %47

31:                                               ; preds = %27, %6
  %32 = load ptr, ptr %11, align 8, !tbaa !107
  %33 = icmp ne ptr %32, null
  br i1 %33, label %34, label %36

34:                                               ; preds = %31
  %35 = load ptr, ptr %11, align 8, !tbaa !107
  store i64 0, ptr %35, align 8, !tbaa !10
  br label %36

36:                                               ; preds = %34, %31
  %37 = load ptr, ptr %12, align 8, !tbaa !107
  %38 = icmp ne ptr %37, null
  br i1 %38, label %39, label %41

39:                                               ; preds = %36
  %40 = load ptr, ptr %12, align 8, !tbaa !107
  store i64 0, ptr %40, align 8, !tbaa !10
  br label %41

41:                                               ; preds = %39, %36
  %42 = load ptr, ptr %13, align 8, !tbaa !107
  %43 = icmp ne ptr %42, null
  br i1 %43, label %44, label %46

44:                                               ; preds = %41
  %45 = load ptr, ptr %13, align 8, !tbaa !107
  store i64 0, ptr %45, align 8, !tbaa !10
  br label %46

46:                                               ; preds = %44, %41
  store i1 false, ptr %7, align 1
  store i32 1, ptr %19, align 4
  br label %136

47:                                               ; preds = %27
  br label %48

48:                                               ; preds = %112, %47
  %49 = load ptr, ptr %17, align 8, !tbaa !92
  %50 = load ptr, ptr %18, align 8, !tbaa !92
  %51 = icmp ult ptr %49, %50
  br i1 %51, label %52, label %113

52:                                               ; preds = %48
  call void @llvm.lifetime.start.p0(i64 1, ptr %20) #13
  %53 = load ptr, ptr %17, align 8, !tbaa !92
  %54 = load i8, ptr %53, align 1, !tbaa !87
  store i8 %54, ptr %20, align 1, !tbaa !87
  %55 = load i64, ptr %16, align 8, !tbaa !10
  %56 = add i64 %55, 1
  store i64 %56, ptr %16, align 8, !tbaa !10
  %57 = load i8, ptr %20, align 1, !tbaa !87
  %58 = zext i8 %57 to i32
  %59 = icmp slt i32 %58, 128
  %60 = xor i1 %59, true
  %61 = xor i1 %60, true
  %62 = zext i1 %61 to i32
  %63 = sext i32 %62 to i64
  %64 = call i64 @llvm.expect.i64(i64 %63, i64 1)
  %65 = icmp ne i64 %64, 0
  br i1 %65, label %66, label %77

66:                                               ; preds = %52
  %67 = load i8, ptr %20, align 1, !tbaa !87
  %68 = zext i8 %67 to i32
  %69 = icmp eq i32 %68, 10
  br i1 %69, label %70, label %74

70:                                               ; preds = %66
  %71 = load i64, ptr %14, align 8, !tbaa !10
  %72 = add i64 %71, 1
  store i64 %72, ptr %14, align 8, !tbaa !10
  %73 = load i64, ptr %16, align 8, !tbaa !10
  store i64 %73, ptr %15, align 8, !tbaa !10
  br label %74

74:                                               ; preds = %70, %66
  %75 = load ptr, ptr %17, align 8, !tbaa !92
  %76 = getelementptr inbounds i8, ptr %75, i64 1
  store ptr %76, ptr %17, align 8, !tbaa !92
  br label %112

77:                                               ; preds = %52
  %78 = load i8, ptr %20, align 1, !tbaa !87
  %79 = zext i8 %78 to i32
  %80 = icmp slt i32 %79, 192
  br i1 %80, label %81, label %84

81:                                               ; preds = %77
  %82 = load ptr, ptr %17, align 8, !tbaa !92
  %83 = getelementptr inbounds i8, ptr %82, i64 1
  store ptr %83, ptr %17, align 8, !tbaa !92
  br label %111

84:                                               ; preds = %77
  %85 = load i8, ptr %20, align 1, !tbaa !87
  %86 = zext i8 %85 to i32
  %87 = icmp slt i32 %86, 224
  br i1 %87, label %88, label %91

88:                                               ; preds = %84
  %89 = load ptr, ptr %17, align 8, !tbaa !92
  %90 = getelementptr inbounds i8, ptr %89, i64 2
  store ptr %90, ptr %17, align 8, !tbaa !92
  br label %110

91:                                               ; preds = %84
  %92 = load i8, ptr %20, align 1, !tbaa !87
  %93 = zext i8 %92 to i32
  %94 = icmp slt i32 %93, 240
  br i1 %94, label %95, label %98

95:                                               ; preds = %91
  %96 = load ptr, ptr %17, align 8, !tbaa !92
  %97 = getelementptr inbounds i8, ptr %96, i64 3
  store ptr %97, ptr %17, align 8, !tbaa !92
  br label %109

98:                                               ; preds = %91
  %99 = load i8, ptr %20, align 1, !tbaa !87
  %100 = zext i8 %99 to i32
  %101 = icmp slt i32 %100, 248
  br i1 %101, label %102, label %105

102:                                              ; preds = %98
  %103 = load ptr, ptr %17, align 8, !tbaa !92
  %104 = getelementptr inbounds i8, ptr %103, i64 4
  store ptr %104, ptr %17, align 8, !tbaa !92
  br label %108

105:                                              ; preds = %98
  %106 = load ptr, ptr %17, align 8, !tbaa !92
  %107 = getelementptr inbounds i8, ptr %106, i64 1
  store ptr %107, ptr %17, align 8, !tbaa !92
  br label %108

108:                                              ; preds = %105, %102
  br label %109

109:                                              ; preds = %108, %95
  br label %110

110:                                              ; preds = %109, %88
  br label %111

111:                                              ; preds = %110, %81
  br label %112

112:                                              ; preds = %111, %74
  call void @llvm.lifetime.end.p0(i64 1, ptr %20) #13
  br label %48, !llvm.loop !138

113:                                              ; preds = %48
  %114 = load ptr, ptr %11, align 8, !tbaa !107
  %115 = icmp ne ptr %114, null
  br i1 %115, label %116, label %120

116:                                              ; preds = %113
  %117 = load i64, ptr %14, align 8, !tbaa !10
  %118 = add i64 %117, 1
  %119 = load ptr, ptr %11, align 8, !tbaa !107
  store i64 %118, ptr %119, align 8, !tbaa !10
  br label %120

120:                                              ; preds = %116, %113
  %121 = load ptr, ptr %12, align 8, !tbaa !107
  %122 = icmp ne ptr %121, null
  br i1 %122, label %123, label %129

123:                                              ; preds = %120
  %124 = load i64, ptr %16, align 8, !tbaa !10
  %125 = load i64, ptr %15, align 8, !tbaa !10
  %126 = sub i64 %124, %125
  %127 = add i64 %126, 1
  %128 = load ptr, ptr %12, align 8, !tbaa !107
  store i64 %127, ptr %128, align 8, !tbaa !10
  br label %129

129:                                              ; preds = %123, %120
  %130 = load ptr, ptr %13, align 8, !tbaa !107
  %131 = icmp ne ptr %130, null
  br i1 %131, label %132, label %135

132:                                              ; preds = %129
  %133 = load i64, ptr %16, align 8, !tbaa !10
  %134 = load ptr, ptr %13, align 8, !tbaa !107
  store i64 %133, ptr %134, align 8, !tbaa !10
  br label %135

135:                                              ; preds = %132, %129
  store i1 true, ptr %7, align 1
  store i32 1, ptr %19, align 4
  br label %136

136:                                              ; preds = %135, %46
  call void @llvm.lifetime.end.p0(i64 8, ptr %18) #13
  call void @llvm.lifetime.end.p0(i64 8, ptr %17) #13
  call void @llvm.lifetime.end.p0(i64 8, ptr %16) #13
  call void @llvm.lifetime.end.p0(i64 8, ptr %15) #13
  call void @llvm.lifetime.end.p0(i64 8, ptr %14) #13
  %137 = load i1, ptr %7, align 1
  ret i1 %137
}