; Function Attrs: nofree norecurse nosync nounwind memory(argmem: readwrite) uwtable
define dso_local noundef zeroext i1 @yyjson_locate_pos(ptr noundef readonly captures(address) %0, i64 noundef %1, i64 noundef %2, ptr noundef writeonly captures(address_is_null) %3, ptr noundef writeonly captures(address_is_null) %4, ptr noundef writeonly captures(address_is_null) %5) local_unnamed_addr #13 {
  %7 = getelementptr inbounds nuw i8, ptr %0, i64 %2
  %.not = icmp ne ptr %0, null
  %8 = icmp ule i64 %2, %1
  %or.cond.not = and i1 %.not, %8
  br i1 %or.cond.not, label %.preheader, label %9

.preheader:                                       ; preds = %6
  %.not70 = icmp eq i64 %2, 0
  br i1 %.not70, label %._crit_edge, label %.lr.ph

9:                                                ; preds = %6
  %.not59 = icmp eq ptr %3, null
  br i1 %.not59, label %11, label %10

10:                                               ; preds = %9
  store i64 0, ptr %3, align 8, !tbaa !85
  br label %11

11:                                               ; preds = %10, %9
  %.not60 = icmp eq ptr %4, null
  br i1 %.not60, label %13, label %12

12:                                               ; preds = %11
  store i64 0, ptr %4, align 8, !tbaa !85
  br label %13

13:                                               ; preds = %12, %11
  %.not61 = icmp eq ptr %5, null
  br i1 %.not61, label %37, label %.sink.split

.lr.ph:                                           ; preds = %.preheader, %28
  %.04067 = phi i64 [ %.2, %28 ], [ 0, %.preheader ]
  %.04166 = phi ptr [ %29, %28 ], [ %0, %.preheader ]
  %.04365 = phi i64 [ %15, %28 ], [ 0, %.preheader ]
  %.04464 = phi i64 [ %.246, %28 ], [ 0, %.preheader ]
  %14 = load i8, ptr %.04166, align 1, !tbaa !75
  %15 = add i64 %.04365, 1
  %16 = icmp sgt i8 %14, -1
  br i1 %16, label %17, label %20, !prof !23

17:                                               ; preds = %.lr.ph
  %18 = icmp eq i8 %14, 10
  %spec.select = select i1 %18, i64 %15, i64 %.04464
  %19 = zext i1 %18 to i64
  %spec.select62 = add i64 %.04067, %19
  br label %28

20:                                               ; preds = %.lr.ph
  %21 = icmp samesign ult i8 %14, -64
  br i1 %21, label %28, label %22

22:                                               ; preds = %20
  %23 = icmp samesign ult i8 %14, -32
  br i1 %23, label %28, label %24

24:                                               ; preds = %22
  %25 = icmp samesign ult i8 %14, -16
  br i1 %25, label %28, label %26

26:                                               ; preds = %24
  %27 = icmp samesign ult i8 %14, -8
  %. = select i1 %27, i64 4, i64 1
  br label %28

28:                                               ; preds = %26, %24, %22, %20, %17
  %.sink = phi i64 [ 1, %17 ], [ 1, %20 ], [ 2, %22 ], [ 3, %24 ], [ %., %26 ]
  %.246 = phi i64 [ %spec.select, %17 ], [ %.04464, %20 ], [ %.04464, %22 ], [ %.04464, %24 ], [ %.04464, %26 ]
  %.2 = phi i64 [ %spec.select62, %17 ], [ %.04067, %20 ], [ %.04067, %22 ], [ %.04067, %24 ], [ %.04067, %26 ]
  %29 = getelementptr inbounds nuw i8, ptr %.04166, i64 %.sink
  %30 = icmp ult ptr %29, %7
  br i1 %30, label %.lr.ph, label %._crit_edge.loopexit, !llvm.loop !99

._crit_edge.loopexit:                             ; preds = %28
  %31 = add i64 %.2, 1
  br label %._crit_edge

._crit_edge:                                      ; preds = %._crit_edge.loopexit, %.preheader
  %.044.lcssa = phi i64 [ 0, %.preheader ], [ %.246, %._crit_edge.loopexit ]
  %.043.lcssa = phi i64 [ 0, %.preheader ], [ %15, %._crit_edge.loopexit ]
  %.040.lcssa = phi i64 [ 1, %.preheader ], [ %31, %._crit_edge.loopexit ]
  %.not56 = icmp eq ptr %3, null
  br i1 %.not56, label %33, label %32

32:                                               ; preds = %._crit_edge
  store i64 %.040.lcssa, ptr %3, align 8, !tbaa !85
  br label %33

33:                                               ; preds = %32, %._crit_edge
  %.not57 = icmp eq ptr %4, null
  br i1 %.not57, label %36, label %34

34:                                               ; preds = %33
  %reass.sub = sub i64 %.043.lcssa, %.044.lcssa
  %35 = add i64 %reass.sub, 1
  store i64 %35, ptr %4, align 8, !tbaa !85
  br label %36

36:                                               ; preds = %34, %33
  %.not58 = icmp eq ptr %5, null
  br i1 %.not58, label %37, label %.sink.split

.sink.split:                                      ; preds = %36, %13
  %.043.lcssa.sink = phi i64 [ 0, %13 ], [ %.043.lcssa, %36 ]
  store i64 %.043.lcssa.sink, ptr %5, align 8, !tbaa !85
  br label %37

37:                                               ; preds = %.sink.split, %36, %13
  ret i1 %or.cond.not
}